target datalayout = "e-m:e-p270:32:32-p271:32:32-p272:64:64-i64:64-i128:128-f80:128-n8:16:32:64-S128"
target triple = "x86_64-pc-linux-gnu"

%"class.Yosys::SExpr" = type { %"class.std::variant.337" }
%"class.std::variant.337" = type { %"struct.std::__detail::__variant::_Variant_base.base.355", [7 x i8] }
%"struct.std::__detail::__variant::_Variant_base.base.355" = type { %"struct.std::__detail::__variant::_Move_assign_base.base.354" }
%"struct.std::__detail::__variant::_Move_assign_base.base.354" = type { %"struct.std::__detail::__variant::_Copy_assign_base.base.353" }
%"struct.std::__detail::__variant::_Copy_assign_base.base.353" = type { %"struct.std::__detail::__variant::_Move_ctor_base.base.352" }
%"struct.std::__detail::__variant::_Move_ctor_base.base.352" = type { %"struct.std::__detail::__variant::_Copy_ctor_base.base.351" }
%"struct.std::__detail::__variant::_Copy_ctor_base.base.351" = type { %"struct.std::__detail::__variant::_Variant_storage.base.350" }
%"struct.std::__detail::__variant::_Variant_storage.base.350" = type { %"union.std::__detail::__variant::_Variadic_union.344", i8 }
%"union.std::__detail::__variant::_Variadic_union.344" = type { %"union.std::__detail::__variant::_Variadic_union.347" }
%"union.std::__detail::__variant::_Variadic_union.347" = type { %"struct.std::__detail::__variant::_Uninitialized.348" }
%"struct.std::__detail::__variant::_Uninitialized.348" = type { %"struct.__gnu_cxx::__aligned_membuf.349" }
%"struct.__gnu_cxx::__aligned_membuf.349" = type { [32 x i8] }
%"struct.(anonymous namespace)::SmtrPrintVisitor" = type { %"struct.Yosys::Functional::AbstractVisitor", %"class.std::function", ptr, ptr }
%"struct.Yosys::Functional::AbstractVisitor" = type { ptr }
%"class.std::function" = type { %"class.std::_Function_base", ptr }
%"class.std::_Function_base" = type { %"union.std::_Any_data", ptr }
%"union.std::_Any_data" = type { %"union.std::_Nocopy_types" }
%"union.std::_Nocopy_types" = type { { i64, i64 } }
%"class.Yosys::Functional::Node" = type { %"struct.Yosys::ComputeGraph<Yosys::Functional::IR::NodeData, Yosys::Functional::IR::Attr, Yosys::RTLIL::IdString, std::tuple<Yosys::RTLIL::IdString, Yosys::RTLIL::IdString, bool>>::BaseRef" }
%"struct.Yosys::ComputeGraph<Yosys::Functional::IR::NodeData, Yosys::Functional::IR::Attr, Yosys::RTLIL::IdString, std::tuple<Yosys::RTLIL::IdString, Yosys::RTLIL::IdString, bool>>::BaseRef" = type <{ ptr, i32, [4 x i8] }>

@.str.42 = private unnamed_addr constant [6 x i8] c"apply\00", align 1
@.str.121 = private unnamed_addr constant [5 x i8] c"bvor\00", align 1
@.str.125 = private unnamed_addr constant [16 x i8] c"bitvector->bits\00", align 1

; Function Attrs: mustprogress nounwind uwtable
define linkonce_odr noundef zeroext i1 @_ZNKSt14_Function_base8_M_emptyEv(ptr noundef nonnull align 8 dereferenceable(24) %0) #6 comdat align 2 {
  %2 = alloca ptr, align 8
  store ptr %0, ptr %2, align 8, !tbaa !879
  %3 = load ptr, ptr %2, align 8
  %4 = getelementptr inbounds nuw %"class.std::_Function_base", ptr %3, i32 0, i32 1
  %5 = load ptr, ptr %4, align 8, !tbaa !881
  %6 = icmp ne ptr %5, null
  %7 = xor i1 %6, true
  ret i1 %7
}

; Function Attrs: mustprogress uwtable
define internal void @_ZN12_GLOBAL__N_116SmtrPrintVisitor7to_listEON5Yosys5SExprE(ptr dead_on_unwind noalias writable sret(%"class.Yosys::SExpr") align 8 %0, ptr noundef nonnull align 8 dereferenceable(56) %1, ptr noundef nonnull align 8 dereferenceable(40) %2) #4 align 2 {
  %4 = alloca ptr, align 8
  %5 = alloca ptr, align 8
  %6 = alloca ptr, align 8
  store ptr %0, ptr %4, align 8
  store ptr %1, ptr %5, align 8, !tbaa !87
  store ptr %2, ptr %6, align 8, !tbaa !731
  %7 = load ptr, ptr %6, align 8, !tbaa !731
  call void @_ZN5Yosys9SExprUtil4listIJRA16_KcNS_5SExprEEEES5_DpOT_(ptr dead_on_unwind writable sret(%"class.Yosys::SExpr") align 8 %0, ptr noundef nonnull align 1 dereferenceable(16) @.str.125, ptr noundef nonnull align 8 dereferenceable(40) %7)
  ret void
}

; Function Attrs: mustprogress uwtable
define linkonce_odr void @_ZNKSt8functionIFN5Yosys5SExprENS0_10Functional4NodeEEEclES3_(ptr dead_on_unwind noalias writable sret(%"class.Yosys::SExpr") align 8 %0, ptr noundef nonnull align 8 dereferenceable(32) %1, ptr %2, i32 %3) #4 comdat align 2 {
  %5 = alloca ptr, align 8
  %6 = alloca %"class.Yosys::Functional::Node", align 8
  %7 = alloca ptr, align 8
  store ptr %0, ptr %5, align 8
  %8 = getelementptr inbounds nuw { ptr, i32 }, ptr %6, i32 0, i32 0
  store ptr %2, ptr %8, align 8
  %9 = getelementptr inbounds nuw { ptr, i32 }, ptr %6, i32 0, i32 1
  store i32 %3, ptr %9, align 8
  store ptr %1, ptr %7, align 8, !tbaa !736
  %10 = load ptr, ptr %7, align 8
  %11 = call noundef zeroext i1 @_ZNKSt14_Function_base8_M_emptyEv(ptr noundef nonnull align 8 dereferenceable(24) %10)
  br i1 %11, label %12, label %13

12:                                               ; preds = %4
  call void @_ZSt25__throw_bad_function_callv() #18
  unreachable

13:                                               ; preds = %4
  %14 = getelementptr inbounds nuw %"class.std::function", ptr %10, i32 0, i32 1
  %15 = load ptr, ptr %14, align 8, !tbaa !872
  %16 = getelementptr inbounds nuw %"class.std::_Function_base", ptr %10, i32 0, i32 0
  call void %15(ptr dead_on_unwind writable sret(%"class.Yosys::SExpr") align 8 %0, ptr noundef nonnull align 8 dereferenceable(16) %16, ptr noundef nonnull align 8 dereferenceable(16) %6)
  ret void
}

; Function Attrs: mustprogress uwtable
define internal void @_ZN12_GLOBAL__N_116SmtrPrintVisitor9reduce_orEN5Yosys10Functional4NodeES3_(ptr dead_on_unwind noalias writable sret(%"class.Yosys::SExpr") align 8 %0, ptr noundef nonnull align 8 dereferenceable(56) %1, ptr %2, i32 %3, ptr %4, i32 %5) unnamed_addr #4 align 2 personality ptr @__gxx_personality_v0 {
  %7 = alloca ptr, align 8
  %8 = alloca %"class.Yosys::Functional::Node", align 8
  %9 = alloca %"class.Yosys::Functional::Node", align 8
  %10 = alloca ptr, align 8
  %11 = alloca %"class.Yosys::SExpr", align 8
  %12 = alloca %"class.Yosys::SExpr", align 8
  %13 = alloca %"class.Yosys::Functional::Node", align 8
  %14 = alloca ptr, align 8
  %15 = alloca i32, align 4
  store ptr %0, ptr %7, align 8
  %16 = getelementptr inbounds nuw { ptr, i32 }, ptr %8, i32 0, i32 0
  store ptr %2, ptr %16, align 8
  %17 = getelementptr inbounds nuw { ptr, i32 }, ptr %8, i32 0, i32 1
  store i32 %3, ptr %17, align 8
  %18 = getelementptr inbounds nuw { ptr, i32 }, ptr %9, i32 0, i32 0
  store ptr %4, ptr %18, align 8
  %19 = getelementptr inbounds nuw { ptr, i32 }, ptr %9, i32 0, i32 1
  store i32 %5, ptr %19, align 8
  store ptr %1, ptr %10, align 8, !tbaa !87
  %20 = load ptr, ptr %10, align 8
  call void @llvm.lifetime.start.p0(i64 40, ptr %11) #3
  call void @llvm.lifetime.start.p0(i64 40, ptr %12) #3
  %21 = getelementptr inbounds nuw %"struct.(anonymous namespace)::SmtrPrintVisitor", ptr %20, i32 0, i32 1
  call void @llvm.memcpy.p0.p0.i64(ptr align 8 %13, ptr align 8 %9, i64 16, i1 false), !tbaa.struct !93
  %22 = getelementptr inbounds nuw { ptr, i32 }, ptr %13, i32 0, i32 0
  %23 = load ptr, ptr %22, align 8
  %24 = getelementptr inbounds nuw { ptr, i32 }, ptr %13, i32 0, i32 1
  %25 = load i32, ptr %24, align 8
  call void @_ZNKSt8functionIFN5Yosys5SExprENS0_10Functional4NodeEEEclES3_(ptr dead_on_unwind writable sret(%"class.Yosys::SExpr") align 8 %12, ptr noundef nonnull align 8 dereferenceable(32) %21, ptr %23, i32 %25)
  invoke void @_ZN12_GLOBAL__N_116SmtrPrintVisitor7to_listEON5Yosys5SExprE(ptr dead_on_unwind writable sret(%"class.Yosys::SExpr") align 8 %11, ptr noundef nonnull align 8 dereferenceable(56) %20, ptr noundef nonnull align 8 dereferenceable(40) %12)
          to label %26 unwind label %28

26:                                               ; preds = %6
  invoke void @_ZN5Yosys9SExprUtil4listIJRA6_KcRA5_S2_NS_5SExprEEEES7_DpOT_(ptr dead_on_unwind writable sret(%"class.Yosys::SExpr") align 8 %0, ptr noundef nonnull align 1 dereferenceable(6) @.str.42, ptr noundef nonnull align 1 dereferenceable(5) @.str.121, ptr noundef nonnull align 8 dereferenceable(40) %11)
          to label %27 unwind label %32

27:                                               ; preds = %26
  call void @_ZN5Yosys5SExprD2Ev(ptr noundef nonnull align 8 dereferenceable(40) %11) #3
  call void @_ZN5Yosys5SExprD2Ev(ptr noundef nonnull align 8 dereferenceable(40) %12) #3
  call void @llvm.lifetime.end.p0(i64 40, ptr %12) #3
  call void @llvm.lifetime.end.p0(i64 40, ptr %11) #3
  ret void

28:                                               ; preds = %6
  %29 = landingpad { ptr, i32 }
          cleanup
  %30 = extractvalue { ptr, i32 } %29, 0
  store ptr %30, ptr %14, align 8
  %31 = extractvalue { ptr, i32 } %29, 1
  store i32 %31, ptr %15, align 4
  br label %36

32:                                               ; preds = %26
  %33 = landingpad { ptr, i32 }
          cleanup
  %34 = extractvalue { ptr, i32 } %33, 0
  store ptr %34, ptr %14, align 8
  %35 = extractvalue { ptr, i32 } %33, 1
  store i32 %35, ptr %15, align 4
  call void @_ZN5Yosys5SExprD2Ev(ptr noundef nonnull align 8 dereferenceable(40) %11) #3
  br label %36

36:                                               ; preds = %32, %28
  call void @_ZN5Yosys5SExprD2Ev(ptr noundef nonnull align 8 dereferenceable(40) %12) #3
  call void @llvm.lifetime.end.p0(i64 40, ptr %12) #3
  call void @llvm.lifetime.end.p0(i64 40, ptr %11) #3
  br label %37

37:                                               ; preds = %36
  %38 = load ptr, ptr %14, align 8
  %39 = load i32, ptr %15, align 4
  %40 = insertvalue { ptr, i32 } poison, ptr %38, 0
  %41 = insertvalue { ptr, i32 } %40, i32 %39, 1
  resume { ptr, i32 } %41
}