; Function Attrs: mustprogress uwtable
define internal void @_ZN12_GLOBAL__N_116SmtrPrintVisitor9reduce_orEN5Yosys10Functional4NodeES3_(ptr dead_on_unwind noalias writable sret(%"class.Yosys::SExpr") align 8 %0, ptr noundef nonnull align 8 dereferenceable(56) %1, ptr readnone captures(none) %2, i32 %3, ptr %4, i32 %5) unnamed_addr #5 align 2 personality ptr @__gxx_personality_v0 {
  %7 = alloca %"class.Yosys::Functional::Node", align 8
  %8 = alloca %"class.Yosys::SExpr", align 8
  %9 = alloca %"class.Yosys::SExpr", align 8
  call void @llvm.lifetime.start.p0(i64 40, ptr nonnull %8) #26
  call void @llvm.lifetime.start.p0(i64 40, ptr nonnull %9) #26
  call void @llvm.lifetime.start.p0(i64 16, ptr nonnull %7)
  store ptr %4, ptr %7, align 8, !noalias !608
  %10 = getelementptr inbounds nuw i8, ptr %7, i64 8
  store i32 %5, ptr %10, align 8, !noalias !608
  %11 = getelementptr inbounds nuw i8, ptr %1, i64 24
  %12 = load ptr, ptr %11, align 8, !tbaa !157, !noalias !608
  %.not.i.i = icmp eq ptr %12, null
  br i1 %.not.i.i, label %13, label %_ZNKSt8functionIFN5Yosys5SExprENS0_10Functional4NodeEEEclES3_.exit

13:                                               ; preds = %6
  tail call void @_ZSt25__throw_bad_function_callv() #28, !noalias !608
  unreachable

_ZNKSt8functionIFN5Yosys5SExprENS0_10Functional4NodeEEEclES3_.exit: ; preds = %6
  %14 = getelementptr inbounds nuw i8, ptr %1, i64 8
  %15 = getelementptr inbounds nuw i8, ptr %1, i64 32
  %16 = load ptr, ptr %15, align 8, !tbaa !159, !noalias !608
  call void %16(ptr dead_on_unwind nonnull writable sret(%"class.Yosys::SExpr") align 8 %9, ptr noundef nonnull align 8 dereferenceable(32) %14, ptr noundef nonnull align 8 dereferenceable(16) %7)
  call void @llvm.lifetime.end.p0(i64 16, ptr nonnull %7)
  invoke void @_ZN5Yosys9SExprUtil4listIJRA16_KcNS_5SExprEEEES5_DpOT_(ptr dead_on_unwind nonnull writable sret(%"class.Yosys::SExpr") align 8 %8, ptr noundef nonnull align 1 dereferenceable(16) @.str.125, ptr noundef nonnull align 8 dereferenceable(40) %9)
          to label %_ZN12_GLOBAL__N_116SmtrPrintVisitor7to_listEON5Yosys5SExprE.exit unwind label %40

_ZN12_GLOBAL__N_116SmtrPrintVisitor7to_listEON5Yosys5SExprE.exit: ; preds = %_ZNKSt8functionIFN5Yosys5SExprENS0_10Functional4NodeEEEclES3_.exit
  invoke void @_ZN5Yosys9SExprUtil4listIJRA6_KcRA5_S2_NS_5SExprEEEES7_DpOT_(ptr dead_on_unwind writable sret(%"class.Yosys::SExpr") align 8 %0, ptr noundef nonnull align 1 dereferenceable(6) @.str.42, ptr noundef nonnull align 1 dereferenceable(5) @.str.121, ptr noundef nonnull align 8 dereferenceable(40) %8)
          to label %17 unwind label %42

17:                                               ; preds = %_ZN12_GLOBAL__N_116SmtrPrintVisitor7to_listEON5Yosys5SExprE.exit
  %18 = getelementptr inbounds nuw i8, ptr %8, i64 32
  %19 = load i8, ptr %18, align 8, !tbaa !117
  %switch.i.i.i = icmp eq i8 %19, 0
  br i1 %switch.i.i.i, label %.noexc1.i.i, label %20

.noexc1.i.i:                                      ; preds = %17
  call void @_ZNSt6vectorIN5Yosys5SExprESaIS1_EED2Ev(ptr noundef nonnull align 8 dereferenceable(40) %8) #26
  br label %_ZN5Yosys5SExprD2Ev.exit

20:                                               ; preds = %17
  %21 = load ptr, ptr %8, align 8, !tbaa !17
  %22 = getelementptr inbounds nuw i8, ptr %8, i64 16
  %23 = icmp eq ptr %21, %22
  br i1 %23, label %_ZNKSt7__cxx1112basic_stringIcSt11char_traitsIcESaIcEE11_M_is_localEv.exit.thread.i.i.i.i.i.i.i.i.i.i, label %_ZNKSt7__cxx1112basic_stringIcSt11char_traitsIcESaIcEE11_M_is_localEv.exit.i.i.i.i.i.i.i.i.i.i

_ZNKSt7__cxx1112basic_stringIcSt11char_traitsIcESaIcEE11_M_is_localEv.exit.thread.i.i.i.i.i.i.i.i.i.i: ; preds = %20
  %24 = getelementptr inbounds nuw i8, ptr %8, i64 8
  %25 = load i64, ptr %24, align 8, !tbaa !22
  %26 = icmp ult i64 %25, 16
  call void @llvm.assume(i1 %26)
  br label %_ZN5Yosys5SExprD2Ev.exit

_ZNKSt7__cxx1112basic_stringIcSt11char_traitsIcESaIcEE11_M_is_localEv.exit.i.i.i.i.i.i.i.i.i.i: ; preds = %20
  %27 = load i64, ptr %22, align 8, !tbaa !23
  %28 = add i64 %27, 1
  call void @_ZdlPvm(ptr noundef %21, i64 noundef %28) #27
  br label %_ZN5Yosys5SExprD2Ev.exit

_ZN5Yosys5SExprD2Ev.exit:                         ; preds = %.noexc1.i.i, %_ZNKSt7__cxx1112basic_stringIcSt11char_traitsIcESaIcEE11_M_is_localEv.exit.thread.i.i.i.i.i.i.i.i.i.i, %_ZNKSt7__cxx1112basic_stringIcSt11char_traitsIcESaIcEE11_M_is_localEv.exit.i.i.i.i.i.i.i.i.i.i
  store i8 -1, ptr %18, align 8, !tbaa !117
  %29 = getelementptr inbounds nuw i8, ptr %9, i64 32
  %30 = load i8, ptr %29, align 8, !tbaa !117
  %switch.i.i.i7 = icmp eq i8 %30, 0
  br i1 %switch.i.i.i7, label %.noexc1.i.i10, label %31

.noexc1.i.i10:                                    ; preds = %_ZN5Yosys5SExprD2Ev.exit
  call void @_ZNSt6vectorIN5Yosys5SExprESaIS1_EED2Ev(ptr noundef nonnull align 8 dereferenceable(40) %9) #26
  br label %_ZN5Yosys5SExprD2Ev.exit11

31:                                               ; preds = %_ZN5Yosys5SExprD2Ev.exit
  %32 = load ptr, ptr %9, align 8, !tbaa !17
  %33 = getelementptr inbounds nuw i8, ptr %9, i64 16
  %34 = icmp eq ptr %32, %33
  br i1 %34, label %_ZNKSt7__cxx1112basic_stringIcSt11char_traitsIcESaIcEE11_M_is_localEv.exit.thread.i.i.i.i.i.i.i.i.i.i9, label %_ZNKSt7__cxx1112basic_stringIcSt11char_traitsIcESaIcEE11_M_is_localEv.exit.i.i.i.i.i.i.i.i.i.i8

_ZNKSt7__cxx1112basic_stringIcSt11char_traitsIcESaIcEE11_M_is_localEv.exit.thread.i.i.i.i.i.i.i.i.i.i9: ; preds = %31
  %35 = getelementptr inbounds nuw i8, ptr %9, i64 8
  %36 = load i64, ptr %35, align 8, !tbaa !22
  %37 = icmp ult i64 %36, 16
  call void @llvm.assume(i1 %37)
  br label %_ZN5Yosys5SExprD2Ev.exit11

_ZNKSt7__cxx1112basic_stringIcSt11char_traitsIcESaIcEE11_M_is_localEv.exit.i.i.i.i.i.i.i.i.i.i8: ; preds = %31
  %38 = load i64, ptr %33, align 8, !tbaa !23
  %39 = add i64 %38, 1
  call void @_ZdlPvm(ptr noundef %32, i64 noundef %39) #27
  br label %_ZN5Yosys5SExprD2Ev.exit11

_ZN5Yosys5SExprD2Ev.exit11:                       ; preds = %.noexc1.i.i10, %_ZNKSt7__cxx1112basic_stringIcSt11char_traitsIcESaIcEE11_M_is_localEv.exit.thread.i.i.i.i.i.i.i.i.i.i9, %_ZNKSt7__cxx1112basic_stringIcSt11char_traitsIcESaIcEE11_M_is_localEv.exit.i.i.i.i.i.i.i.i.i.i8
  call void @llvm.lifetime.end.p0(i64 40, ptr nonnull %9) #26
  call void @llvm.lifetime.end.p0(i64 40, ptr nonnull %8) #26
  ret void

40:                                               ; preds = %_ZNKSt8functionIFN5Yosys5SExprENS0_10Functional4NodeEEEclES3_.exit
  %41 = landingpad { ptr, i32 }
          cleanup
  br label %44

42:                                               ; preds = %_ZN12_GLOBAL__N_116SmtrPrintVisitor7to_listEON5Yosys5SExprE.exit
  %43 = landingpad { ptr, i32 }
          cleanup
  call void @_ZN5Yosys5SExprD2Ev(ptr noundef nonnull align 8 dereferenceable(40) %8) #26
  br label %44

44:                                               ; preds = %42, %40
  %.pn = phi { ptr, i32 } [ %43, %42 ], [ %41, %40 ]
  call void @_ZN5Yosys5SExprD2Ev(ptr noundef nonnull align 8 dereferenceable(40) %9) #26
  call void @llvm.lifetime.end.p0(i64 40, ptr nonnull %9) #26
  call void @llvm.lifetime.end.p0(i64 40, ptr nonnull %8) #26
  resume { ptr, i32 } %.pn
}